; ModuleID = '4/338.c'
source_filename = "4/338.c"
target datalayout = "e-m:e-p270:32:32-p271:32:32-p272:64:64-i64:64-f80:128-n8:16:32:64-S128"
target triple = "x86_64-pc-linux-gnu"

@.str = private unnamed_addr constant [6 x i8] c"%d %d\00", align 1
@.str.1 = private unnamed_addr constant [3 x i8] c"%d\00", align 1
@.str.2 = private unnamed_addr constant [4 x i8] c"%d\0A\00", align 1

; Function Attrs: noinline nounwind uwtable
define dso_local void @main() #0 {
  %1 = alloca i32, align 4
  %2 = alloca i32, align 4
  %3 = alloca i32, align 4
  %4 = alloca i32, align 4
  %5 = alloca i32, align 4
  %6 = alloca [105 x [105 x i32]], align 16
  %7 = alloca i32, align 4
  store i32 0, i32* %1, align 4
  %8 = call i32 (i8*, ...) @__isoc99_scanf(i8* getelementptr inbounds ([6 x i8], [6 x i8]* @.str, i64 0, i64 0), i32* %4, i32* %5)
  store i32 0, i32* %2, align 4
  br label %9

9:                                                ; preds = %30, %0
  %10 = load i32, i32* %2, align 4
  %11 = load i32, i32* %4, align 4
  %12 = icmp slt i32 %10, %11
  br i1 %12, label %13, label %33

13:                                               ; preds = %9
  store i32 0, i32* %3, align 4
  br label %14

14:                                               ; preds = %26, %13
  %15 = load i32, i32* %3, align 4
  %16 = load i32, i32* %5, align 4
  %17 = icmp slt i32 %15, %16
  br i1 %17, label %18, label %29

18:                                               ; preds = %14
  %19 = load i32, i32* %2, align 4
  %20 = sext i32 %19 to i64
  %21 = getelementptr inbounds [105 x [105 x i32]], [105 x [105 x i32]]* %6, i64 0, i64 %20
  %22 = load i32, i32* %3, align 4
  %23 = sext i32 %22 to i64
  %24 = getelementptr inbounds [105 x i32], [105 x i32]* %21, i64 0, i64 %23
  %25 = call i32 (i8*, ...) @__isoc99_scanf(i8* getelementptr inbounds ([3 x i8], [3 x i8]* @.str.1, i64 0, i64 0), i32* %24)
  br label %26

26:                                               ; preds = %18
  %27 = load i32, i32* %3, align 4
  %28 = add nsw i32 %27, 1
  store i32 %28, i32* %3, align 4
  br label %14

29:                                               ; preds = %14
  br label %30

30:                                               ; preds = %29
  %31 = load i32, i32* %2, align 4
  %32 = add nsw i32 %31, 1
  store i32 %32, i32* %2, align 4
  br label %9

33:                                               ; preds = %9
  store i32 0, i32* %7, align 4
  br label %34

34:                                               ; preds = %115, %33
  %35 = load i32, i32* %7, align 4
  %36 = load i32, i32* %5, align 4
  %37 = load i32, i32* %4, align 4
  %38 = add nsw i32 %36, %37
  %39 = sub nsw i32 %38, 1
  %40 = icmp slt i32 %35, %39
  br i1 %40, label %41, label %118

41:                                               ; preds = %34
  %42 = load i32, i32* %7, align 4
  %43 = load i32, i32* %5, align 4
  %44 = icmp slt i32 %42, %43
  br i1 %44, label %45, label %79

45:                                               ; preds = %41
  store i32 0, i32* %2, align 4
  br label %46

46:                                               ; preds = %75, %45
  %47 = load i32, i32* %2, align 4
  %48 = load i32, i32* %4, align 4
  %49 = icmp slt i32 %47, %48
  br i1 %49, label %50, label %61

50:                                               ; preds = %46
  %51 = load i32, i32* %7, align 4
  %52 = load i32, i32* %2, align 4
  %53 = sub nsw i32 %51, %52
  %54 = icmp sge i32 %53, 0
  br i1 %54, label %55, label %61

55:                                               ; preds = %50
  %56 = load i32, i32* %7, align 4
  %57 = load i32, i32* %2, align 4
  %58 = sub nsw i32 %56, %57
  %59 = load i32, i32* %5, align 4
  %60 = icmp slt i32 %58, %59
  br label %61

61:                                               ; preds = %55, %50, %46
  %62 = phi i1 [ false, %50 ], [ false, %46 ], [ %60, %55 ]
  br i1 %62, label %63, label %78

63:                                               ; preds = %61
  %64 = load i32, i32* %7, align 4
  %65 = load i32, i32* %2, align 4
  %66 = sub nsw i32 %64, %65
  store i32 %66, i32* %3, align 4
  %67 = load i32, i32* %2, align 4
  %68 = sext i32 %67 to i64
  %69 = getelementptr inbounds [105 x [105 x i32]], [105 x [105 x i32]]* %6, i64 0, i64 %68
  %70 = load i32, i32* %3, align 4
  %71 = sext i32 %70 to i64
  %72 = getelementptr inbounds [105 x i32], [105 x i32]* %69, i64 0, i64 %71
  %73 = load i32, i32* %72, align 4
  %74 = call i32 (i8*, ...) @printf(i8* getelementptr inbounds ([4 x i8], [4 x i8]* @.str.2, i64 0, i64 0), i32 %73)
  br label %75

75:                                               ; preds = %63
  %76 = load i32, i32* %2, align 4
  %77 = add nsw i32 %76, 1
  store i32 %77, i32* %2, align 4
  br label %46

78:                                               ; preds = %61
  br label %114

79:                                               ; preds = %41
  %80 = load i32, i32* %5, align 4
  %81 = sub nsw i32 %80, 1
  store i32 %81, i32* %3, align 4
  br label %82

82:                                               ; preds = %110, %79
  %83 = load i32, i32* %3, align 4
  %84 = icmp sge i32 %83, 0
  br i1 %84, label %85, label %96

85:                                               ; preds = %82
  %86 = load i32, i32* %7, align 4
  %87 = load i32, i32* %3, align 4
  %88 = sub nsw i32 %86, %87
  %89 = icmp sge i32 %88, 0
  br i1 %89, label %90, label %96

90:                                               ; preds = %85
  %91 = load i32, i32* %7, align 4
  %92 = load i32, i32* %3, align 4
  %93 = sub nsw i32 %91, %92
  %94 = load i32, i32* %4, align 4
  %95 = icmp slt i32 %93, %94
  br label %96

96:                                               ; preds = %90, %85, %82
  %97 = phi i1 [ false, %85 ], [ false, %82 ], [ %95, %90 ]
  br i1 %97, label %98, label %113

98:                                               ; preds = %96
  %99 = load i32, i32* %7, align 4
  %100 = load i32, i32* %3, align 4
  %101 = sub nsw i32 %99, %100
  store i32 %101, i32* %2, align 4
  %102 = load i32, i32* %2, align 4
  %103 = sext i32 %102 to i64
  %104 = getelementptr inbounds [105 x [105 x i32]], [105 x [105 x i32]]* %6, i64 0, i64 %103
  %105 = load i32, i32* %3, align 4
  %106 = sext i32 %105 to i64
  %107 = getelementptr inbounds [105 x i32], [105 x i32]* %104, i64 0, i64 %106
  %108 = load i32, i32* %107, align 4
  %109 = call i32 (i8*, ...) @printf(i8* getelementptr inbounds ([4 x i8], [4 x i8]* @.str.2, i64 0, i64 0), i32 %108)
  br label %110

110:                                              ; preds = %98
  %111 = load i32, i32* %3, align 4
  %112 = add nsw i32 %111, -1
  store i32 %112, i32* %3, align 4
  br label %82

113:                                              ; preds = %96
  br label %114

114:                                              ; preds = %113, %78
  br label %115

115:                                              ; preds = %114
  %116 = load i32, i32* %7, align 4
  %117 = add nsw i32 %116, 1
  store i32 %117, i32* %7, align 4
  br label %34

118:                                              ; preds = %34
  ret void
}

declare dso_local i32 @__isoc99_scanf(i8*, ...) #1

declare dso_local i32 @printf(i8*, ...) #1


!llvm.module.flags = !{!0}
!llvm.ident = !{!1}

!0 = !{i32 1, !"wchar_size", i32 4}
!1 = !{!"clang version 10.0.0-4ubuntu1 "}
